; Function Attrs: mustprogress nofree norecurse nounwind willreturn memory(argmem: readwrite) uwtable
define noundef i64 @_ZN7rocksdb16BlockCacheTracer9NextGetIdEv(ptr noundef nonnull align 8 captures(none) dereferenceable(88) %0) local_unnamed_addr #16 align 2 {
  %2 = getelementptr inbounds nuw i8, ptr %0, i64 72
  %3 = load atomic i64, ptr %2 monotonic, align 8
  %.not = icmp eq i64 %3, 0
  br i1 %.not, label %10, label %4

4:                                                ; preds = %1
  %5 = getelementptr inbounds nuw i8, ptr %0, i64 80
  %6 = atomicrmw add ptr %5, i64 1 seq_cst, align 8
  %7 = icmp eq i64 %6, 0
  br i1 %7, label %8, label %10

8:                                                ; preds = %4
  %9 = atomicrmw add ptr %5, i64 1 seq_cst, align 8
  br label %10

10:                                               ; preds = %8, %4, %1
  %.0 = phi i64 [ 0, %1 ], [ %9, %8 ], [ %6, %4 ]
  ret i64 %.0
}